; Function Attrs: mustprogress uwtable
define hidden void @_ZN4ncnn3Mat6createEiiimPNS_9AllocatorE(ptr noundef nonnull align 8 captures(none) dereferenceable(72) %0, i32 noundef %1, i32 noundef %2, i32 noundef %3, i64 noundef %4, ptr noundef %5) local_unnamed_addr #0 align 2 {
  %7 = alloca ptr, align 8
  %8 = getelementptr inbounds nuw i8, ptr %0, i64 40
  %9 = load i32, ptr %8, align 8, !tbaa !15
  %10 = icmp eq i32 %9, 3
  %11 = getelementptr inbounds nuw i8, ptr %0, i64 44
  %12 = load i32, ptr %11, align 4
  %13 = icmp eq i32 %12, %1
  %or.cond = select i1 %10, i1 %13, i1 false
  %14 = getelementptr inbounds nuw i8, ptr %0, i64 48
  %15 = load i32, ptr %14, align 8
  %16 = icmp eq i32 %15, %2
  %or.cond22 = select i1 %or.cond, i1 %16, i1 false
  %17 = getelementptr inbounds nuw i8, ptr %0, i64 56
  %18 = load i32, ptr %17, align 8
  %19 = icmp eq i32 %18, %3
  %or.cond25 = select i1 %or.cond22, i1 %19, i1 false
  %20 = getelementptr inbounds nuw i8, ptr %0, i64 16
  %21 = load i64, ptr %20, align 8
  %22 = icmp eq i64 %21, %4
  %or.cond28 = select i1 %or.cond25, i1 %22, i1 false
  %23 = getelementptr inbounds nuw i8, ptr %0, i64 24
  %24 = load i32, ptr %23, align 8
  %25 = icmp eq i32 %24, 1
  %or.cond31 = select i1 %or.cond28, i1 %25, i1 false
  %26 = getelementptr inbounds nuw i8, ptr %0, i64 32
  %27 = load ptr, ptr %26, align 8
  %28 = icmp eq ptr %27, %5
  %or.cond34 = select i1 %or.cond31, i1 %28, i1 false
  br i1 %or.cond34, label %thread-pre-split.thread, label %29

29:                                               ; preds = %6
  %30 = getelementptr inbounds nuw i8, ptr %0, i64 8
  %31 = load ptr, ptr %30, align 8, !tbaa !19
  %.not.i = icmp eq ptr %31, null
  br i1 %.not.i, label %_ZN4ncnn3Mat7releaseEv.exit, label %32

32:                                               ; preds = %29
  %33 = atomicrmw add ptr %31, i32 -1 acq_rel, align 4
  %34 = icmp eq i32 %33, 1
  br i1 %34, label %35, label %_ZN4ncnn3Mat7releaseEv.exit

35:                                               ; preds = %32
  %36 = load ptr, ptr %26, align 8, !tbaa !30
  %.not3.i = icmp eq ptr %36, null
  %37 = load ptr, ptr %0, align 8, !tbaa !4
  br i1 %.not3.i, label %42, label %38

38:                                               ; preds = %35
  %39 = load ptr, ptr %36, align 8, !tbaa !31
  %40 = getelementptr inbounds nuw i8, ptr %39, i64 24
  %41 = load ptr, ptr %40, align 8
  tail call void %41(ptr noundef nonnull align 8 dereferenceable(8) %36, ptr noundef %37)
  br label %_ZN4ncnn3Mat7releaseEv.exit

42:                                               ; preds = %35
  %.not.i35 = icmp eq ptr %37, null
  br i1 %.not.i35, label %_ZN4ncnn3Mat7releaseEv.exit, label %43

43:                                               ; preds = %42
  tail call void @free(ptr noundef nonnull %37) #12
  br label %_ZN4ncnn3Mat7releaseEv.exit

_ZN4ncnn3Mat7releaseEv.exit:                      ; preds = %43, %42, %29, %32, %38
  %44 = getelementptr inbounds nuw i8, ptr %0, i64 52
  %45 = getelementptr inbounds nuw i8, ptr %0, i64 64
  tail call void @llvm.memset.p0.i64(ptr noundef nonnull align 8 dereferenceable(16) %0, i8 0, i64 16, i1 false)
  store i64 %4, ptr %20, align 8, !tbaa !17
  store i32 1, ptr %23, align 8, !tbaa !18
  store ptr %5, ptr %26, align 8, !tbaa !30
  store i32 3, ptr %8, align 8, !tbaa !15
  store i32 %1, ptr %11, align 4, !tbaa !16
  store i32 %2, ptr %14, align 8, !tbaa !20
  store i32 1, ptr %44, align 4, !tbaa !21
  store i32 %3, ptr %17, align 8, !tbaa !14
  %46 = sext i32 %1 to i64
  %47 = sext i32 %2 to i64
  %48 = mul nsw i64 %47, %46
  %49 = mul i64 %48, %4
  %50 = add i64 %49, 15
  %51 = and i64 %50, -16
  %52 = udiv i64 %51, %4
  store i64 %52, ptr %45, align 8, !tbaa !13
  %53 = sext i32 %3 to i64
  %54 = mul i64 %4, %53
  %55 = mul i64 %54, %52
  %56 = add i64 %55, 3
  %57 = and i64 %56, -4
  %.not = icmp eq i64 %57, 0
  br i1 %.not, label %thread-pre-split.thread, label %58

58:                                               ; preds = %_ZN4ncnn3Mat7releaseEv.exit
  %.not16 = icmp eq ptr %5, null
  br i1 %.not16, label %_ZN4ncnnL10fastMallocEm.exit, label %59

59:                                               ; preds = %58
  %60 = add i64 %57, 4
  %61 = load ptr, ptr %5, align 8, !tbaa !31
  %62 = getelementptr inbounds nuw i8, ptr %61, i64 16
  %63 = load ptr, ptr %62, align 8
  %64 = tail call noundef ptr %63(ptr noundef nonnull align 8 dereferenceable(8) %5, i64 noundef %60)
  br label %thread-pre-split

_ZN4ncnnL10fastMallocEm.exit:                     ; preds = %58
  call void @llvm.lifetime.start.p0(i64 8, ptr nonnull %7) #12
  store ptr null, ptr %7, align 8, !tbaa !33
  %65 = add i64 %57, 68
  %66 = call i32 @posix_memalign(ptr noundef nonnull %7, i64 noundef 64, i64 noundef %65) #12
  %.not.i36 = icmp eq i32 %66, 0
  %.pre = load ptr, ptr %7, align 8
  %67 = select i1 %.not.i36, ptr %.pre, ptr null
  call void @llvm.lifetime.end.p0(i64 8, ptr nonnull %7) #12
  br label %thread-pre-split

thread-pre-split:                                 ; preds = %59, %_ZN4ncnnL10fastMallocEm.exit
  %.sink = phi ptr [ %64, %59 ], [ %67, %_ZN4ncnnL10fastMallocEm.exit ]
  store ptr %.sink, ptr %0, align 8, !tbaa !4
  %.not17 = icmp eq ptr %.sink, null
  br i1 %.not17, label %thread-pre-split.thread, label %68

68:                                               ; preds = %thread-pre-split
  %69 = getelementptr inbounds nuw i8, ptr %.sink, i64 %57
  store ptr %69, ptr %30, align 8, !tbaa !19
  store i32 1, ptr %69, align 4, !tbaa !34
  br label %thread-pre-split.thread

thread-pre-split.thread:                          ; preds = %_ZN4ncnn3Mat7releaseEv.exit, %thread-pre-split, %68, %6
  ret void
}